target datalayout = "e-m:e-p270:32:32-p271:32:32-p272:64:64-i64:64-i128:128-f80:128-n8:16:32:64-S128"
target triple = "x86_64-pc-linux-gnu"

%struct.PJ_LP = type { double, double }
%union.PJ_COORD = type { [4 x double] }
%struct.PJ_LPZ = type { double, double, double }
%struct.PJ_XYZ = type { double, double, double }
%struct.PJconsts = type { ptr, ptr, ptr, ptr, ptr, ptr, ptr, ptr, ptr, ptr, ptr, ptr, i32, ptr, ptr, ptr, ptr, ptr, ptr, ptr, ptr, double, double, double, double, double, double, double, double, double, double, double, double, double, double, double, double, double, double, double, double, double, double, i32, i32, i32, i32, i32, i32, i32, i32, i32, i32, i32, ptr, ptr, ptr, ptr, ptr, ptr, double, double, double, double, double, double, double, double, double, double, double, i32, [7 x double], i32, ptr, ptr, double, double, i32, [4 x i8], %"class.std::shared_ptr", i8, double, i8, %"class.std::__cxx11::basic_string", %"class.std::__cxx11::basic_string", %"class.std::__cxx11::basic_string", i8, %"class.std::vector", i32, %"class.std::vector.3", i32, i8, i8, i8, ptr }
%"class.std::shared_ptr" = type { %"class.std::__shared_ptr" }
%"class.std::__shared_ptr" = type { ptr, %"class.std::__shared_count" }
%"class.std::__shared_count" = type { ptr }
%"class.std::__cxx11::basic_string" = type { %"struct.std::__cxx11::basic_string<char>::_Alloc_hider", i64, %union.anon }
%"struct.std::__cxx11::basic_string<char>::_Alloc_hider" = type { ptr }
%union.anon = type { i64, [8 x i8] }
%"class.std::vector" = type { %"struct.std::_Vector_base" }
%"struct.std::_Vector_base" = type { %"struct.std::_Vector_base<osgeo::proj::operation::GridDescription, std::allocator<osgeo::proj::operation::GridDescription>>::_Vector_impl" }
%"struct.std::_Vector_base<osgeo::proj::operation::GridDescription, std::allocator<osgeo::proj::operation::GridDescription>>::_Vector_impl" = type { %"struct.std::_Vector_base<osgeo::proj::operation::GridDescription, std::allocator<osgeo::proj::operation::GridDescription>>::_Vector_impl_data" }
%"struct.std::_Vector_base<osgeo::proj::operation::GridDescription, std::allocator<osgeo::proj::operation::GridDescription>>::_Vector_impl_data" = type { ptr, ptr, ptr }
%"class.std::vector.3" = type { %"struct.std::_Vector_base.4" }
%"struct.std::_Vector_base.4" = type { %"struct.std::_Vector_base<PJCoordOperation, std::allocator<PJCoordOperation>>::_Vector_impl" }
%"struct.std::_Vector_base<PJCoordOperation, std::allocator<PJCoordOperation>>::_Vector_impl" = type { %"struct.std::_Vector_base<PJCoordOperation, std::allocator<PJCoordOperation>>::_Vector_impl_data" }
%"struct.std::_Vector_base<PJCoordOperation, std::allocator<PJCoordOperation>>::_Vector_impl_data" = type { ptr, ptr, ptr }

; Function Attrs: mustprogress uwtable
define internal void @_ZL12inv_finalizeP8PJconstsR8PJ_COORD(ptr noundef %0, ptr noundef nonnull align 8 dereferenceable(32) %1) #0 {
  %3 = alloca ptr, align 8
  %4 = alloca ptr, align 8
  %5 = alloca %union.PJ_COORD, align 8
  %6 = alloca %union.PJ_COORD, align 8
  %7 = alloca %union.PJ_COORD, align 8
  %8 = alloca %union.PJ_COORD, align 8
  %9 = alloca %union.PJ_COORD, align 8
  %10 = alloca %union.PJ_COORD, align 8
  %11 = alloca %union.PJ_COORD, align 8
  %12 = alloca %union.PJ_COORD, align 8
  %13 = alloca %union.PJ_COORD, align 8
  %14 = alloca %union.PJ_COORD, align 8
  %15 = alloca %union.PJ_COORD, align 8
  %16 = alloca %union.PJ_COORD, align 8
  %17 = alloca %union.PJ_COORD, align 8
  store ptr %0, ptr %3, align 8, !tbaa !3
  store ptr %1, ptr %4, align 8, !tbaa !72
  %18 = load ptr, ptr %4, align 8, !tbaa !72
  %19 = getelementptr inbounds nuw %struct.PJ_XYZ, ptr %18, i32 0, i32 0
  %20 = load double, ptr %19, align 8, !tbaa !65
  %21 = fcmp oeq double %20, 0x7FF0000000000000
  br i1 %21, label %22, label %26

22:                                               ; preds = %2
  %23 = load ptr, ptr %3, align 8, !tbaa !3
  %24 = call i32 @proj_errno_set(ptr noundef %23, i32 noundef 2050)
  call void @llvm.lifetime.start.p0(i64 32, ptr %5) #7
  call void @_Z16proj_coord_errorv(ptr dead_on_unwind writable sret(%union.PJ_COORD) align 8 %5)
  %25 = load ptr, ptr %4, align 8, !tbaa !72
  call void @llvm.memcpy.p0.p0.i64(ptr align 8 %25, ptr align 8 %5, i64 32, i1 false), !tbaa.struct !71
  call void @llvm.lifetime.end.p0(i64 32, ptr %5) #7
  br label %26

26:                                               ; preds = %22, %2
  %27 = load ptr, ptr %3, align 8, !tbaa !3
  %28 = getelementptr inbounds nuw %struct.PJconsts, ptr %27, i32 0, i32 52
  %29 = load i32, ptr %28, align 4, !tbaa !85
  %30 = icmp eq i32 %29, 4
  br i1 %30, label %31, label %138

31:                                               ; preds = %26
  %32 = load ptr, ptr %4, align 8, !tbaa !72
  %33 = getelementptr inbounds nuw %struct.PJ_LP, ptr %32, i32 0, i32 0
  %34 = load double, ptr %33, align 8, !tbaa !65
  %35 = load ptr, ptr %3, align 8, !tbaa !3
  %36 = getelementptr inbounds nuw %struct.PJconsts, ptr %35, i32 0, i32 76
  %37 = load double, ptr %36, align 8, !tbaa !86
  %38 = fadd double %34, %37
  %39 = load ptr, ptr %3, align 8, !tbaa !3
  %40 = getelementptr inbounds nuw %struct.PJconsts, ptr %39, i32 0, i32 60
  %41 = load double, ptr %40, align 8, !tbaa !87
  %42 = fadd double %38, %41
  %43 = load ptr, ptr %4, align 8, !tbaa !72
  %44 = getelementptr inbounds nuw %struct.PJ_LP, ptr %43, i32 0, i32 0
  store double %42, ptr %44, align 8, !tbaa !65
  %45 = load ptr, ptr %3, align 8, !tbaa !3
  %46 = getelementptr inbounds nuw %struct.PJconsts, ptr %45, i32 0, i32 43
  %47 = load i32, ptr %46, align 8, !tbaa !88
  %48 = icmp eq i32 0, %47
  br i1 %48, label %49, label %56

49:                                               ; preds = %31
  %50 = load ptr, ptr %4, align 8, !tbaa !72
  %51 = getelementptr inbounds nuw %struct.PJ_LPZ, ptr %50, i32 0, i32 0
  %52 = load double, ptr %51, align 8, !tbaa !65
  %53 = call noundef double @_Z6adjlond(double noundef %52)
  %54 = load ptr, ptr %4, align 8, !tbaa !72
  %55 = getelementptr inbounds nuw %struct.PJ_LPZ, ptr %54, i32 0, i32 0
  store double %53, ptr %55, align 8, !tbaa !65
  br label %56

56:                                               ; preds = %49, %31
  %57 = load ptr, ptr %3, align 8, !tbaa !3
  %58 = getelementptr inbounds nuw %struct.PJconsts, ptr %57, i32 0, i32 59
  %59 = load ptr, ptr %58, align 8, !tbaa !89
  %60 = icmp ne ptr %59, null
  br i1 %60, label %61, label %67

61:                                               ; preds = %56
  call void @llvm.lifetime.start.p0(i64 32, ptr %6) #7
  %62 = load ptr, ptr %3, align 8, !tbaa !3
  %63 = getelementptr inbounds nuw %struct.PJconsts, ptr %62, i32 0, i32 59
  %64 = load ptr, ptr %63, align 8, !tbaa !89
  %65 = load ptr, ptr %4, align 8, !tbaa !72
  call void @llvm.memcpy.p0.p0.i64(ptr align 8 %7, ptr align 8 %65, i64 32, i1 false), !tbaa.struct !71
  call void @proj_trans(ptr dead_on_unwind writable sret(%union.PJ_COORD) align 8 %6, ptr noundef %64, i32 noundef -1, ptr noundef byval(%union.PJ_COORD) align 8 %7)
  %66 = load ptr, ptr %4, align 8, !tbaa !72
  call void @llvm.memcpy.p0.p0.i64(ptr align 8 %66, ptr align 8 %6, i64 32, i1 false), !tbaa.struct !71
  call void @llvm.lifetime.end.p0(i64 32, ptr %6) #7
  br label %67

67:                                               ; preds = %61, %56
  %68 = load ptr, ptr %4, align 8, !tbaa !72
  %69 = getelementptr inbounds nuw %struct.PJ_LP, ptr %68, i32 0, i32 0
  %70 = load double, ptr %69, align 8, !tbaa !65
  %71 = fcmp oeq double %70, 0x7FF0000000000000
  br i1 %71, label %72, label %73

72:                                               ; preds = %67
  br label %138

73:                                               ; preds = %67
  %74 = load ptr, ptr %3, align 8, !tbaa !3
  %75 = getelementptr inbounds nuw %struct.PJconsts, ptr %74, i32 0, i32 58
  %76 = load ptr, ptr %75, align 8, !tbaa !90
  %77 = icmp ne ptr %76, null
  br i1 %77, label %78, label %84

78:                                               ; preds = %73
  call void @llvm.lifetime.start.p0(i64 32, ptr %8) #7
  %79 = load ptr, ptr %3, align 8, !tbaa !3
  %80 = getelementptr inbounds nuw %struct.PJconsts, ptr %79, i32 0, i32 58
  %81 = load ptr, ptr %80, align 8, !tbaa !90
  %82 = load ptr, ptr %4, align 8, !tbaa !72
  call void @llvm.memcpy.p0.p0.i64(ptr align 8 %9, ptr align 8 %82, i64 32, i1 false), !tbaa.struct !71
  call void @proj_trans(ptr dead_on_unwind writable sret(%union.PJ_COORD) align 8 %8, ptr noundef %81, i32 noundef 1, ptr noundef byval(%union.PJ_COORD) align 8 %9)
  %83 = load ptr, ptr %4, align 8, !tbaa !72
  call void @llvm.memcpy.p0.p0.i64(ptr align 8 %83, ptr align 8 %8, i64 32, i1 false), !tbaa.struct !71
  call void @llvm.lifetime.end.p0(i64 32, ptr %8) #7
  br label %122

84:                                               ; preds = %73
  %85 = load ptr, ptr %3, align 8, !tbaa !3
  %86 = getelementptr inbounds nuw %struct.PJconsts, ptr %85, i32 0, i32 57
  %87 = load ptr, ptr %86, align 8, !tbaa !74
  %88 = icmp ne ptr %87, null
  br i1 %88, label %99, label %89

89:                                               ; preds = %84
  %90 = load ptr, ptr %3, align 8, !tbaa !3
  %91 = getelementptr inbounds nuw %struct.PJconsts, ptr %90, i32 0, i32 56
  %92 = load ptr, ptr %91, align 8, !tbaa !91
  %93 = icmp ne ptr %92, null
  br i1 %93, label %94, label %121

94:                                               ; preds = %89
  %95 = load ptr, ptr %3, align 8, !tbaa !3
  %96 = getelementptr inbounds nuw %struct.PJconsts, ptr %95, i32 0, i32 55
  %97 = load ptr, ptr %96, align 8, !tbaa !79
  %98 = icmp ne ptr %97, null
  br i1 %98, label %99, label %121

99:                                               ; preds = %94, %84
  call void @llvm.lifetime.start.p0(i64 32, ptr %10) #7
  %100 = load ptr, ptr %3, align 8, !tbaa !3
  %101 = getelementptr inbounds nuw %struct.PJconsts, ptr %100, i32 0, i32 55
  %102 = load ptr, ptr %101, align 8, !tbaa !79
  %103 = load ptr, ptr %4, align 8, !tbaa !72
  call void @llvm.memcpy.p0.p0.i64(ptr align 8 %11, ptr align 8 %103, i64 32, i1 false), !tbaa.struct !71
  call void @proj_trans(ptr dead_on_unwind writable sret(%union.PJ_COORD) align 8 %10, ptr noundef %102, i32 noundef 1, ptr noundef byval(%union.PJ_COORD) align 8 %11)
  %104 = load ptr, ptr %4, align 8, !tbaa !72
  call void @llvm.memcpy.p0.p0.i64(ptr align 8 %104, ptr align 8 %10, i64 32, i1 false), !tbaa.struct !71
  call void @llvm.lifetime.end.p0(i64 32, ptr %10) #7
  %105 = load ptr, ptr %3, align 8, !tbaa !3
  %106 = getelementptr inbounds nuw %struct.PJconsts, ptr %105, i32 0, i32 57
  %107 = load ptr, ptr %106, align 8, !tbaa !74
  %108 = icmp ne ptr %107, null
  br i1 %108, label %109, label %115

109:                                              ; preds = %99
  call void @llvm.lifetime.start.p0(i64 32, ptr %12) #7
  %110 = load ptr, ptr %3, align 8, !tbaa !3
  %111 = getelementptr inbounds nuw %struct.PJconsts, ptr %110, i32 0, i32 57
  %112 = load ptr, ptr %111, align 8, !tbaa !74
  %113 = load ptr, ptr %4, align 8, !tbaa !72
  call void @llvm.memcpy.p0.p0.i64(ptr align 8 %13, ptr align 8 %113, i64 32, i1 false), !tbaa.struct !71
  call void @proj_trans(ptr dead_on_unwind writable sret(%union.PJ_COORD) align 8 %12, ptr noundef %112, i32 noundef 1, ptr noundef byval(%union.PJ_COORD) align 8 %13)
  %114 = load ptr, ptr %4, align 8, !tbaa !72
  call void @llvm.memcpy.p0.p0.i64(ptr align 8 %114, ptr align 8 %12, i64 32, i1 false), !tbaa.struct !71
  call void @llvm.lifetime.end.p0(i64 32, ptr %12) #7
  br label %115

115:                                              ; preds = %109, %99
  call void @llvm.lifetime.start.p0(i64 32, ptr %14) #7
  %116 = load ptr, ptr %3, align 8, !tbaa !3
  %117 = getelementptr inbounds nuw %struct.PJconsts, ptr %116, i32 0, i32 56
  %118 = load ptr, ptr %117, align 8, !tbaa !91
  %119 = load ptr, ptr %4, align 8, !tbaa !72
  call void @llvm.memcpy.p0.p0.i64(ptr align 8 %15, ptr align 8 %119, i64 32, i1 false), !tbaa.struct !71
  call void @proj_trans(ptr dead_on_unwind writable sret(%union.PJ_COORD) align 8 %14, ptr noundef %118, i32 noundef -1, ptr noundef byval(%union.PJ_COORD) align 8 %15)
  %120 = load ptr, ptr %4, align 8, !tbaa !72
  call void @llvm.memcpy.p0.p0.i64(ptr align 8 %120, ptr align 8 %14, i64 32, i1 false), !tbaa.struct !71
  call void @llvm.lifetime.end.p0(i64 32, ptr %14) #7
  br label %121

121:                                              ; preds = %115, %94, %89
  br label %122

122:                                              ; preds = %121, %78
  %123 = load ptr, ptr %4, align 8, !tbaa !72
  %124 = getelementptr inbounds nuw %struct.PJ_LP, ptr %123, i32 0, i32 0
  %125 = load double, ptr %124, align 8, !tbaa !65
  %126 = fcmp oeq double %125, 0x7FF0000000000000
  br i1 %126, label %127, label %128

127:                                              ; preds = %122
  br label %138

128:                                              ; preds = %122
  %129 = load ptr, ptr %3, align 8, !tbaa !3
  %130 = getelementptr inbounds nuw %struct.PJconsts, ptr %129, i32 0, i32 44
  %131 = load i32, ptr %130, align 4, !tbaa !92
  %132 = icmp ne i32 %131, 0
  br i1 %132, label %133, label %137

133:                                              ; preds = %128
  call void @llvm.lifetime.start.p0(i64 32, ptr %16) #7
  %134 = load ptr, ptr %3, align 8, !tbaa !3
  %135 = load ptr, ptr %4, align 8, !tbaa !72
  call void @llvm.memcpy.p0.p0.i64(ptr align 8 %17, ptr align 8 %135, i64 32, i1 false), !tbaa.struct !71
  call void @_Z22pj_geocentric_latitudePK8PJconsts12PJ_DIRECTION8PJ_COORD(ptr dead_on_unwind writable sret(%union.PJ_COORD) align 8 %16, ptr noundef %134, i32 noundef 1, ptr noundef byval(%union.PJ_COORD) align 8 %17)
  %136 = load ptr, ptr %4, align 8, !tbaa !72
  call void @llvm.memcpy.p0.p0.i64(ptr align 8 %136, ptr align 8 %16, i64 32, i1 false), !tbaa.struct !71
  call void @llvm.lifetime.end.p0(i64 32, ptr %16) #7
  br label %137

137:                                              ; preds = %133, %128
  br label %138

138:                                              ; preds = %72, %127, %137, %26
  ret void
}