; Function Attrs: mustprogress uwtable
define internal fastcc void @_ZL12inv_finalizeP8PJconstsR8PJ_COORD(ptr noundef %0, ptr noundef nonnull align 8 captures(none) dereferenceable(32) %1) unnamed_addr #0 {
  %3 = alloca %union.PJ_COORD, align 8
  %4 = alloca %union.PJ_COORD, align 8
  %5 = alloca %union.PJ_COORD, align 8
  %6 = alloca %union.PJ_COORD, align 8
  %7 = alloca %union.PJ_COORD, align 8
  %8 = alloca %union.PJ_COORD, align 8
  %9 = alloca %union.PJ_COORD, align 8
  %10 = load double, ptr %1, align 8, !tbaa !62
  %11 = fcmp oeq double %10, 0x7FF0000000000000
  br i1 %11, label %12, label %14

12:                                               ; preds = %2
  %13 = tail call i32 @proj_errno_set(ptr noundef %0, i32 noundef 2050)
  call void @llvm.lifetime.start.p0(i64 32, ptr nonnull %3) #6
  call void @_Z16proj_coord_errorv(ptr dead_on_unwind nonnull writable sret(%union.PJ_COORD) align 8 %3)
  call void @llvm.memcpy.p0.p0.i64(ptr noundef nonnull align 8 dereferenceable(32) %1, ptr noundef nonnull align 8 dereferenceable(32) %3, i64 32, i1 false), !tbaa.struct !71
  call void @llvm.lifetime.end.p0(i64 32, ptr nonnull %3) #6
  br label %14

14:                                               ; preds = %12, %2
  %15 = getelementptr inbounds nuw i8, ptr %0, i64 380
  %16 = load i32, ptr %15, align 4, !tbaa !83
  %17 = icmp eq i32 %16, 4
  br i1 %17, label %18, label %66

18:                                               ; preds = %14
  %19 = load double, ptr %1, align 8, !tbaa !62
  %20 = getelementptr inbounds nuw i8, ptr %0, i64 616
  %21 = load double, ptr %20, align 8, !tbaa !84
  %22 = fadd double %19, %21
  %23 = getelementptr inbounds nuw i8, ptr %0, i64 440
  %24 = load double, ptr %23, align 8, !tbaa !85
  %25 = fadd double %22, %24
  store double %25, ptr %1, align 8, !tbaa !62
  %26 = getelementptr inbounds nuw i8, ptr %0, i64 344
  %27 = load i32, ptr %26, align 8, !tbaa !86
  %28 = icmp eq i32 %27, 0
  br i1 %28, label %29, label %31

29:                                               ; preds = %18
  %30 = call noundef double @_Z6adjlond(double noundef %25)
  store double %30, ptr %1, align 8, !tbaa !62
  br label %31

31:                                               ; preds = %29, %18
  %32 = phi double [ %30, %29 ], [ %25, %18 ]
  %33 = getelementptr inbounds nuw i8, ptr %0, i64 432
  %34 = load ptr, ptr %33, align 8, !tbaa !87
  %.not = icmp eq ptr %34, null
  br i1 %.not, label %36, label %35

35:                                               ; preds = %31
  call void @llvm.lifetime.start.p0(i64 32, ptr nonnull %4) #6
  call void @proj_trans(ptr dead_on_unwind nonnull writable sret(%union.PJ_COORD) align 8 %4, ptr noundef nonnull %34, i32 noundef -1, ptr noundef nonnull byval(%union.PJ_COORD) align 8 %1)
  call void @llvm.memcpy.p0.p0.i64(ptr noundef nonnull align 8 dereferenceable(32) %1, ptr noundef nonnull align 8 dereferenceable(32) %4, i64 32, i1 false), !tbaa.struct !71
  call void @llvm.lifetime.end.p0(i64 32, ptr nonnull %4) #6
  %.pre = load double, ptr %1, align 8, !tbaa !62
  br label %36

36:                                               ; preds = %35, %31
  %37 = phi double [ %.pre, %35 ], [ %32, %31 ]
  %38 = fcmp oeq double %37, 0x7FF0000000000000
  br i1 %38, label %66, label %39

39:                                               ; preds = %36
  %40 = getelementptr inbounds nuw i8, ptr %0, i64 424
  %41 = load ptr, ptr %40, align 8, !tbaa !88
  %.not38 = icmp eq ptr %41, null
  br i1 %.not38, label %43, label %42

42:                                               ; preds = %39
  call void @llvm.lifetime.start.p0(i64 32, ptr nonnull %5) #6
  call void @proj_trans(ptr dead_on_unwind nonnull writable sret(%union.PJ_COORD) align 8 %5, ptr noundef nonnull %41, i32 noundef 1, ptr noundef nonnull byval(%union.PJ_COORD) align 8 %1)
  call void @llvm.memcpy.p0.p0.i64(ptr noundef nonnull align 8 dereferenceable(32) %1, ptr noundef nonnull align 8 dereferenceable(32) %5, i64 32, i1 false), !tbaa.struct !71
  call void @llvm.lifetime.end.p0(i64 32, ptr nonnull %5) #6
  br label %59

43:                                               ; preds = %39
  %44 = getelementptr inbounds nuw i8, ptr %0, i64 416
  %45 = load ptr, ptr %44, align 8, !tbaa !72
  %.not39 = icmp eq ptr %45, null
  br i1 %.not39, label %46, label %._crit_edge

._crit_edge:                                      ; preds = %43
  %.phi.trans.insert = getelementptr inbounds nuw i8, ptr %0, i64 400
  %.pre44 = load ptr, ptr %.phi.trans.insert, align 8, !tbaa !77
  br label %52

46:                                               ; preds = %43
  %47 = getelementptr inbounds nuw i8, ptr %0, i64 408
  %48 = load ptr, ptr %47, align 8, !tbaa !89
  %.not40 = icmp eq ptr %48, null
  br i1 %.not40, label %59, label %49

49:                                               ; preds = %46
  %50 = getelementptr inbounds nuw i8, ptr %0, i64 400
  %51 = load ptr, ptr %50, align 8, !tbaa !77
  %.not41 = icmp eq ptr %51, null
  br i1 %.not41, label %59, label %52

52:                                               ; preds = %._crit_edge, %49
  %53 = phi ptr [ %.pre44, %._crit_edge ], [ %51, %49 ]
  call void @llvm.lifetime.start.p0(i64 32, ptr nonnull %6) #6
  call void @proj_trans(ptr dead_on_unwind nonnull writable sret(%union.PJ_COORD) align 8 %6, ptr noundef %53, i32 noundef 1, ptr noundef nonnull byval(%union.PJ_COORD) align 8 %1)
  call void @llvm.memcpy.p0.p0.i64(ptr noundef nonnull align 8 dereferenceable(32) %1, ptr noundef nonnull align 8 dereferenceable(32) %6, i64 32, i1 false), !tbaa.struct !71
  call void @llvm.lifetime.end.p0(i64 32, ptr nonnull %6) #6
  %54 = load ptr, ptr %44, align 8, !tbaa !72
  %.not42 = icmp eq ptr %54, null
  br i1 %.not42, label %56, label %55

55:                                               ; preds = %52
  call void @llvm.lifetime.start.p0(i64 32, ptr nonnull %7) #6
  call void @proj_trans(ptr dead_on_unwind nonnull writable sret(%union.PJ_COORD) align 8 %7, ptr noundef nonnull %54, i32 noundef 1, ptr noundef nonnull byval(%union.PJ_COORD) align 8 %1)
  call void @llvm.memcpy.p0.p0.i64(ptr noundef nonnull align 8 dereferenceable(32) %1, ptr noundef nonnull align 8 dereferenceable(32) %7, i64 32, i1 false), !tbaa.struct !71
  call void @llvm.lifetime.end.p0(i64 32, ptr nonnull %7) #6
  br label %56

56:                                               ; preds = %55, %52
  call void @llvm.lifetime.start.p0(i64 32, ptr nonnull %8) #6
  %57 = getelementptr inbounds nuw i8, ptr %0, i64 408
  %58 = load ptr, ptr %57, align 8, !tbaa !89
  call void @proj_trans(ptr dead_on_unwind nonnull writable sret(%union.PJ_COORD) align 8 %8, ptr noundef %58, i32 noundef -1, ptr noundef nonnull byval(%union.PJ_COORD) align 8 %1)
  call void @llvm.memcpy.p0.p0.i64(ptr noundef nonnull align 8 dereferenceable(32) %1, ptr noundef nonnull align 8 dereferenceable(32) %8, i64 32, i1 false), !tbaa.struct !71
  call void @llvm.lifetime.end.p0(i64 32, ptr nonnull %8) #6
  br label %59

59:                                               ; preds = %46, %49, %56, %42
  %60 = load double, ptr %1, align 8, !tbaa !62
  %61 = fcmp oeq double %60, 0x7FF0000000000000
  br i1 %61, label %66, label %62

62:                                               ; preds = %59
  %63 = getelementptr inbounds nuw i8, ptr %0, i64 348
  %64 = load i32, ptr %63, align 4, !tbaa !90
  %.not43 = icmp eq i32 %64, 0
  br i1 %.not43, label %66, label %65

65:                                               ; preds = %62
  call void @llvm.lifetime.start.p0(i64 32, ptr nonnull %9) #6
  call void @_Z22pj_geocentric_latitudePK8PJconsts12PJ_DIRECTION8PJ_COORD(ptr dead_on_unwind nonnull writable sret(%union.PJ_COORD) align 8 %9, ptr noundef nonnull %0, i32 noundef 1, ptr noundef nonnull byval(%union.PJ_COORD) align 8 %1)
  call void @llvm.memcpy.p0.p0.i64(ptr noundef nonnull align 8 dereferenceable(32) %1, ptr noundef nonnull align 8 dereferenceable(32) %9, i64 32, i1 false), !tbaa.struct !71
  call void @llvm.lifetime.end.p0(i64 32, ptr nonnull %9) #6
  br label %66

66:                                               ; preds = %62, %65, %59, %36, %14
  ret void
}